; Function Attrs: nounwind uwtable
define noalias nonnull ptr @l_Lean_Meta_withLetDecl___at_Lean_Meta_IndPredBelow_mkCtorType_checkCount___spec__10___boxed(ptr noundef %0, ptr noundef readnone captures(none) %1) local_unnamed_addr #0 {
  tail call void @lean_inc_heartbeat() #6
  %3 = tail call noalias ptr @mi_malloc_small(i64 noundef 24) #6
  %4 = icmp eq ptr %3, null
  br i1 %4, label %5, label %l_Lean_Meta_withLetDecl___at_Lean_Meta_IndPredBelow_mkCtorType_checkCount___spec__10.exit

5:                                                ; preds = %2
  tail call void @lean_internal_panic_out_of_memory() #7
  unreachable

l_Lean_Meta_withLetDecl___at_Lean_Meta_IndPredBelow_mkCtorType_checkCount___spec__10.exit: ; preds = %2
  %6 = getelementptr inbounds nuw i8, ptr %3, i64 4
  store i32 1, ptr %3, align 4, !tbaa !12
  store i32 -184549352, ptr %6, align 4
  %7 = getelementptr inbounds nuw i8, ptr %3, i64 8
  store ptr @l_Lean_Meta_withLetDecl___at_Lean_Meta_IndPredBelow_mkCtorType_checkCount___spec__10___rarg___boxed, ptr %7, align 8, !tbaa !4
  %8 = getelementptr inbounds nuw i8, ptr %3, i64 16
  store i16 12, ptr %8, align 8, !tbaa !15
  %9 = getelementptr inbounds nuw i8, ptr %3, i64 18
  store i16 0, ptr %9, align 2, !tbaa !15
  %10 = ptrtoint ptr %0 to i64
  %11 = and i64 %10, 1
  %.not = icmp eq i64 %11, 0
  br i1 %.not, label %12, label %lean_dec.exit

12:                                               ; preds = %l_Lean_Meta_withLetDecl___at_Lean_Meta_IndPredBelow_mkCtorType_checkCount___spec__10.exit
  %13 = load i32, ptr %0, align 4, !tbaa !12
  %14 = icmp sgt i32 %13, 1
  br i1 %14, label %15, label %17, !prof !11

15:                                               ; preds = %12
  %16 = add nsw i32 %13, -1
  store i32 %16, ptr %0, align 4, !tbaa !12
  br label %lean_dec.exit

17:                                               ; preds = %12
  %.not.i = icmp eq i32 %13, 0
  br i1 %.not.i, label %lean_dec.exit, label %18

18:                                               ; preds = %17
  tail call void @lean_dec_ref_cold(ptr noundef nonnull %0) #6
  br label %lean_dec.exit

lean_dec.exit:                                    ; preds = %18, %17, %15, %l_Lean_Meta_withLetDecl___at_Lean_Meta_IndPredBelow_mkCtorType_checkCount___spec__10.exit
  ret ptr %3
}